target datalayout = "e-m:e-p270:32:32-p271:32:32-p272:64:64-i64:64-i128:128-f80:128-n8:16:32:64-S128"
target triple = "x86_64-pc-linux-gnu"

%struct.SParser = type { ptr, %struct.Mbuffer, %struct.Dyndata, ptr, ptr }
%struct.Mbuffer = type { ptr, i64, i64 }
%struct.Dyndata = type { %struct.anon.8, %struct.Labellist, %struct.Labellist }
%struct.anon.8 = type { ptr, i32, i32 }
%struct.Labellist = type { ptr, i32, i32 }
%struct.Zio = type { i64, ptr, ptr, ptr, ptr }

@.str.8 = private unnamed_addr constant [3 x i8] c"bt\00", align 1
@.str.9 = private unnamed_addr constant [5 x i8] c"\1BLua\00", align 1
@.str.10 = private unnamed_addr constant [7 x i8] c"binary\00", align 1
@.str.11 = private unnamed_addr constant [5 x i8] c"text\00", align 1
@.str.12 = private unnamed_addr constant [42 x i8] c"attempt to load a %s chunk (mode is '%s')\00", align 1

; Function Attrs: nounwind uwtable
define internal void @checkmode(ptr noundef %0, ptr noundef %1, ptr noundef %2) #0 {
  %4 = alloca ptr, align 8
  %5 = alloca ptr, align 8
  %6 = alloca ptr, align 8
  store ptr %0, ptr %4, align 8, !tbaa !4
  store ptr %1, ptr %5, align 8, !tbaa !86
  store ptr %2, ptr %6, align 8, !tbaa !86
  %7 = load ptr, ptr %5, align 8, !tbaa !86
  %8 = load ptr, ptr %6, align 8, !tbaa !86
  %9 = getelementptr inbounds i8, ptr %8, i64 0
  %10 = load i8, ptr %9, align 1, !tbaa !34
  %11 = sext i8 %10 to i32
  %12 = call ptr @strchr(ptr noundef %7, i32 noundef %11) #15
  %13 = icmp eq ptr %12, null
  br i1 %13, label %14, label %20

14:                                               ; preds = %3
  %15 = load ptr, ptr %4, align 8, !tbaa !4
  %16 = load ptr, ptr %6, align 8, !tbaa !86
  %17 = load ptr, ptr %5, align 8, !tbaa !86
  %18 = call ptr (ptr, ptr, ...) @luaO_pushfstring(ptr noundef %15, ptr noundef @.str.12, ptr noundef %16, ptr noundef %17)
  %19 = load ptr, ptr %4, align 8, !tbaa !4
  call void @luaD_throw(ptr noundef %19, i32 noundef 3) #13
  unreachable

20:                                               ; preds = %3
  ret void
}

; Function Attrs: nounwind uwtable
define internal void @f_parser(ptr noundef %0, ptr noundef %1) #0 {
  %3 = alloca ptr, align 8
  %4 = alloca ptr, align 8
  %5 = alloca ptr, align 8
  %6 = alloca ptr, align 8
  %7 = alloca ptr, align 8
  %8 = alloca i32, align 4
  %9 = alloca i32, align 4
  store ptr %0, ptr %3, align 8, !tbaa !4
  store ptr %1, ptr %4, align 8, !tbaa !47
  call void @llvm.lifetime.start.p0(i64 8, ptr %5) #11
  call void @llvm.lifetime.start.p0(i64 8, ptr %6) #11
  %10 = load ptr, ptr %4, align 8, !tbaa !47
  store ptr %10, ptr %6, align 8, !tbaa !113
  call void @llvm.lifetime.start.p0(i64 8, ptr %7) #11
  %11 = load ptr, ptr %6, align 8, !tbaa !113
  %12 = getelementptr inbounds nuw %struct.SParser, ptr %11, i32 0, i32 3
  %13 = load ptr, ptr %12, align 8, !tbaa !104
  %14 = icmp ne ptr %13, null
  br i1 %14, label %15, label %19

15:                                               ; preds = %2
  %16 = load ptr, ptr %6, align 8, !tbaa !113
  %17 = getelementptr inbounds nuw %struct.SParser, ptr %16, i32 0, i32 3
  %18 = load ptr, ptr %17, align 8, !tbaa !104
  br label %20

19:                                               ; preds = %2
  br label %20

20:                                               ; preds = %19, %15
  %21 = phi ptr [ %18, %15 ], [ @.str.8, %19 ]
  store ptr %21, ptr %7, align 8, !tbaa !86
  call void @llvm.lifetime.start.p0(i64 4, ptr %8) #11
  %22 = load ptr, ptr %6, align 8, !tbaa !113
  %23 = getelementptr inbounds nuw %struct.SParser, ptr %22, i32 0, i32 0
  %24 = load ptr, ptr %23, align 8, !tbaa !95
  %25 = getelementptr inbounds nuw %struct.Zio, ptr %24, i32 0, i32 0
  %26 = load i64, ptr %25, align 8, !tbaa !115
  %27 = add i64 %26, -1
  store i64 %27, ptr %25, align 8, !tbaa !115
  %28 = icmp ugt i64 %26, 0
  br i1 %28, label %29, label %38

29:                                               ; preds = %20
  %30 = load ptr, ptr %6, align 8, !tbaa !113
  %31 = getelementptr inbounds nuw %struct.SParser, ptr %30, i32 0, i32 0
  %32 = load ptr, ptr %31, align 8, !tbaa !95
  %33 = getelementptr inbounds nuw %struct.Zio, ptr %32, i32 0, i32 1
  %34 = load ptr, ptr %33, align 8, !tbaa !117
  %35 = getelementptr inbounds nuw i8, ptr %34, i32 1
  store ptr %35, ptr %33, align 8, !tbaa !117
  %36 = load i8, ptr %34, align 1, !tbaa !34
  %37 = zext i8 %36 to i32
  br label %43

38:                                               ; preds = %20
  %39 = load ptr, ptr %6, align 8, !tbaa !113
  %40 = getelementptr inbounds nuw %struct.SParser, ptr %39, i32 0, i32 0
  %41 = load ptr, ptr %40, align 8, !tbaa !95
  %42 = call i32 @luaZ_fill(ptr noundef %41)
  br label %43

43:                                               ; preds = %38, %29
  %44 = phi i32 [ %37, %29 ], [ %42, %38 ]
  store i32 %44, ptr %8, align 4, !tbaa !9
  %45 = load i32, ptr %8, align 4, !tbaa !9
  %46 = load i8, ptr @.str.9, align 1, !tbaa !34
  %47 = sext i8 %46 to i32
  %48 = icmp eq i32 %45, %47
  br i1 %48, label %49, label %67

49:                                               ; preds = %43
  call void @llvm.lifetime.start.p0(i64 4, ptr %9) #11
  store i32 0, ptr %9, align 4, !tbaa !9
  %50 = load ptr, ptr %7, align 8, !tbaa !86
  %51 = call ptr @strchr(ptr noundef %50, i32 noundef 66) #15
  %52 = icmp ne ptr %51, null
  br i1 %52, label %53, label %54

53:                                               ; preds = %49
  store i32 1, ptr %9, align 4, !tbaa !9
  br label %57

54:                                               ; preds = %49
  %55 = load ptr, ptr %3, align 8, !tbaa !4
  %56 = load ptr, ptr %7, align 8, !tbaa !86
  call void @checkmode(ptr noundef %55, ptr noundef %56, ptr noundef @.str.10)
  br label %57

57:                                               ; preds = %54, %53
  %58 = load ptr, ptr %3, align 8, !tbaa !4
  %59 = load ptr, ptr %6, align 8, !tbaa !113
  %60 = getelementptr inbounds nuw %struct.SParser, ptr %59, i32 0, i32 0
  %61 = load ptr, ptr %60, align 8, !tbaa !95
  %62 = load ptr, ptr %6, align 8, !tbaa !113
  %63 = getelementptr inbounds nuw %struct.SParser, ptr %62, i32 0, i32 4
  %64 = load ptr, ptr %63, align 8, !tbaa !103
  %65 = load i32, ptr %9, align 4, !tbaa !9
  %66 = call ptr @luaU_undump(ptr noundef %58, ptr noundef %61, ptr noundef %64, i32 noundef %65)
  store ptr %66, ptr %5, align 8, !tbaa !118
  call void @llvm.lifetime.end.p0(i64 4, ptr %9) #11
  br label %83

67:                                               ; preds = %43
  %68 = load ptr, ptr %3, align 8, !tbaa !4
  %69 = load ptr, ptr %7, align 8, !tbaa !86
  call void @checkmode(ptr noundef %68, ptr noundef %69, ptr noundef @.str.11)
  %70 = load ptr, ptr %3, align 8, !tbaa !4
  %71 = load ptr, ptr %6, align 8, !tbaa !113
  %72 = getelementptr inbounds nuw %struct.SParser, ptr %71, i32 0, i32 0
  %73 = load ptr, ptr %72, align 8, !tbaa !95
  %74 = load ptr, ptr %6, align 8, !tbaa !113
  %75 = getelementptr inbounds nuw %struct.SParser, ptr %74, i32 0, i32 1
  %76 = load ptr, ptr %6, align 8, !tbaa !113
  %77 = getelementptr inbounds nuw %struct.SParser, ptr %76, i32 0, i32 2
  %78 = load ptr, ptr %6, align 8, !tbaa !113
  %79 = getelementptr inbounds nuw %struct.SParser, ptr %78, i32 0, i32 4
  %80 = load ptr, ptr %79, align 8, !tbaa !103
  %81 = load i32, ptr %8, align 4, !tbaa !9
  %82 = call ptr @luaY_parser(ptr noundef %70, ptr noundef %73, ptr noundef %75, ptr noundef %77, ptr noundef %80, i32 noundef %81)
  store ptr %82, ptr %5, align 8, !tbaa !118
  br label %83

83:                                               ; preds = %67, %57
  %84 = load ptr, ptr %3, align 8, !tbaa !4
  %85 = load ptr, ptr %5, align 8, !tbaa !118
  call void @luaF_initupvals(ptr noundef %84, ptr noundef %85)
  call void @llvm.lifetime.end.p0(i64 4, ptr %8) #11
  call void @llvm.lifetime.end.p0(i64 8, ptr %7) #11
  call void @llvm.lifetime.end.p0(i64 8, ptr %6) #11
  call void @llvm.lifetime.end.p0(i64 8, ptr %5) #11
  ret void
}