; Function Attrs: nounwind uwtable
define internal void @f_parser(ptr noundef %0, ptr noundef %1) #0 {
  %3 = getelementptr inbounds nuw i8, ptr %1, i64 80
  %4 = load ptr, ptr %3, align 8, !tbaa !93
  %.not = icmp eq ptr %4, null
  %spec.select = select i1 %.not, ptr @.str.8, ptr %4
  %5 = load ptr, ptr %1, align 8, !tbaa !83
  %6 = load i64, ptr %5, align 8, !tbaa !102
  %7 = add i64 %6, -1
  store i64 %7, ptr %5, align 8, !tbaa !102
  %.not26 = icmp eq i64 %6, 0
  br i1 %.not26, label %14, label %8

8:                                                ; preds = %2
  %9 = getelementptr inbounds nuw i8, ptr %5, i64 8
  %10 = load ptr, ptr %9, align 8, !tbaa !104
  %11 = getelementptr inbounds nuw i8, ptr %10, i64 1
  store ptr %11, ptr %9, align 8, !tbaa !104
  %12 = load i8, ptr %10, align 1, !tbaa !27
  %13 = zext i8 %12 to i32
  br label %16

14:                                               ; preds = %2
  %15 = tail call i32 @luaZ_fill(ptr noundef nonnull %5) #13
  br label %16

16:                                               ; preds = %14, %8
  %17 = phi i32 [ %13, %8 ], [ %15, %14 ]
  %18 = icmp eq i32 %17, 27
  br i1 %18, label %19, label %30

19:                                               ; preds = %16
  %20 = tail call ptr @strchr(ptr noundef nonnull dereferenceable(1) %spec.select, i32 noundef 66) #17
  %.not27 = icmp eq ptr %20, null
  br i1 %.not27, label %21, label %checkmode.exit

21:                                               ; preds = %19
  %22 = tail call ptr @strchr(ptr noundef nonnull dereferenceable(1) %spec.select, i32 noundef 98) #17
  %23 = icmp eq ptr %22, null
  br i1 %23, label %24, label %checkmode.exit

24:                                               ; preds = %21
  %25 = tail call ptr (ptr, ptr, ...) @luaO_pushfstring(ptr noundef %0, ptr noundef nonnull @.str.12, ptr noundef nonnull @.str.10, ptr noundef nonnull %spec.select) #13
  tail call void @luaD_throw(ptr noundef %0, i32 noundef 3) #15
  unreachable

checkmode.exit:                                   ; preds = %21, %19
  %.0 = phi i32 [ 1, %19 ], [ 0, %21 ]
  %26 = load ptr, ptr %1, align 8, !tbaa !83
  %27 = getelementptr inbounds nuw i8, ptr %1, i64 88
  %28 = load ptr, ptr %27, align 8, !tbaa !92
  %29 = tail call ptr @luaU_undump(ptr noundef %0, ptr noundef %26, ptr noundef %28, i32 noundef %.0) #13
  br label %41

30:                                               ; preds = %16
  %31 = tail call ptr @strchr(ptr noundef nonnull dereferenceable(1) %spec.select, i32 noundef 116) #17
  %32 = icmp eq ptr %31, null
  br i1 %32, label %33, label %checkmode.exit28

33:                                               ; preds = %30
  %34 = tail call ptr (ptr, ptr, ...) @luaO_pushfstring(ptr noundef %0, ptr noundef nonnull @.str.12, ptr noundef nonnull @.str.11, ptr noundef nonnull %spec.select) #13
  tail call void @luaD_throw(ptr noundef %0, i32 noundef 3) #15
  unreachable

checkmode.exit28:                                 ; preds = %30
  %35 = load ptr, ptr %1, align 8, !tbaa !83
  %36 = getelementptr inbounds nuw i8, ptr %1, i64 8
  %37 = getelementptr inbounds nuw i8, ptr %1, i64 32
  %38 = getelementptr inbounds nuw i8, ptr %1, i64 88
  %39 = load ptr, ptr %38, align 8, !tbaa !92
  %40 = tail call ptr @luaY_parser(ptr noundef %0, ptr noundef %35, ptr noundef nonnull %36, ptr noundef nonnull %37, ptr noundef %39, i32 noundef %17) #13
  br label %41

41:                                               ; preds = %checkmode.exit28, %checkmode.exit
  %.023 = phi ptr [ %29, %checkmode.exit ], [ %40, %checkmode.exit28 ]
  tail call void @luaF_initupvals(ptr noundef %0, ptr noundef %.023) #13
  ret void
}